; ModuleID = '44/830.c'
source_filename = "44/830.c"
target datalayout = "e-m:e-p270:32:32-p271:32:32-p272:64:64-i64:64-f80:128-n8:16:32:64-S128"
target triple = "x86_64-pc-linux-gnu"

@.str = private unnamed_addr constant [3 x i8] c"%d\00", align 1
@.str.1 = private unnamed_addr constant [4 x i8] c"%d\0A\00", align 1
@.str.2 = private unnamed_addr constant [3 x i8] c"0\0A\00", align 1

; Function Attrs: noinline nounwind uwtable
define dso_local i32 @reverse(i32 %0) #0 {
  %2 = alloca i32, align 4
  %3 = alloca i32, align 4
  %4 = alloca i32, align 4
  %5 = alloca i32, align 4
  %6 = alloca i32, align 4
  %7 = alloca [100 x i32], align 16
  %8 = alloca i32, align 4
  store i32 %0, i32* %2, align 4
  %9 = load i32, i32* %2, align 4
  store i32 %9, i32* %3, align 4
  store i32 0, i32* %5, align 4
  br label %10

10:                                               ; preds = %30, %1
  %11 = load i32, i32* %3, align 4
  %12 = sitofp i32 %11 to double
  %13 = load i32, i32* %5, align 4
  %14 = add nsw i32 %13, 1
  %15 = sitofp i32 %14 to double
  %16 = call double @pow(double 1.000000e+01, double %15) #3
  %17 = fcmp olt double %12, %16
  br i1 %17, label %18, label %28

18:                                               ; preds = %10
  %19 = load i32, i32* %3, align 4
  %20 = sitofp i32 %19 to double
  %21 = load i32, i32* %5, align 4
  %22 = sitofp i32 %21 to double
  %23 = call double @pow(double 1.000000e+01, double %22) #3
  %24 = fcmp oge double %20, %23
  br i1 %24, label %25, label %28

25:                                               ; preds = %18
  %26 = load i32, i32* %5, align 4
  %27 = add nsw i32 %26, 1
  store i32 %27, i32* %6, align 4
  br label %33

28:                                               ; preds = %18, %10
  br label %29

29:                                               ; preds = %28
  br label %30

30:                                               ; preds = %29
  %31 = load i32, i32* %5, align 4
  %32 = add nsw i32 %31, 1
  store i32 %32, i32* %5, align 4
  br label %10

33:                                               ; preds = %25
  store i32 1, i32* %4, align 4
  br label %34

34:                                               ; preds = %47, %33
  %35 = load i32, i32* %4, align 4
  %36 = load i32, i32* %6, align 4
  %37 = icmp sle i32 %35, %36
  br i1 %37, label %38, label %50

38:                                               ; preds = %34
  %39 = load i32, i32* %3, align 4
  %40 = srem i32 %39, 10
  %41 = load i32, i32* %4, align 4
  %42 = sub nsw i32 %41, 1
  %43 = sext i32 %42 to i64
  %44 = getelementptr inbounds [100 x i32], [100 x i32]* %7, i64 0, i64 %43
  store i32 %40, i32* %44, align 4
  %45 = load i32, i32* %3, align 4
  %46 = sdiv i32 %45, 10
  store i32 %46, i32* %3, align 4
  br label %47

47:                                               ; preds = %38
  %48 = load i32, i32* %4, align 4
  %49 = add nsw i32 %48, 1
  store i32 %49, i32* %4, align 4
  br label %34

50:                                               ; preds = %34
  store i32 0, i32* %8, align 4
  store i32 1, i32* %4, align 4
  br label %51

51:                                               ; preds = %72, %50
  %52 = load i32, i32* %4, align 4
  %53 = load i32, i32* %6, align 4
  %54 = icmp sle i32 %52, %53
  br i1 %54, label %55, label %75

55:                                               ; preds = %51
  %56 = load i32, i32* %4, align 4
  %57 = sub nsw i32 %56, 1
  %58 = sext i32 %57 to i64
  %59 = getelementptr inbounds [100 x i32], [100 x i32]* %7, i64 0, i64 %58
  %60 = load i32, i32* %59, align 4
  %61 = sitofp i32 %60 to double
  %62 = load i32, i32* %6, align 4
  %63 = load i32, i32* %4, align 4
  %64 = sub nsw i32 %62, %63
  %65 = sitofp i32 %64 to double
  %66 = call double @pow(double 1.000000e+01, double %65) #3
  %67 = fmul double %61, %66
  %68 = load i32, i32* %8, align 4
  %69 = sitofp i32 %68 to double
  %70 = fadd double %69, %67
  %71 = fptosi double %70 to i32
  store i32 %71, i32* %8, align 4
  br label %72

72:                                               ; preds = %55
  %73 = load i32, i32* %4, align 4
  %74 = add nsw i32 %73, 1
  store i32 %74, i32* %4, align 4
  br label %51

75:                                               ; preds = %51
  %76 = load i32, i32* %8, align 4
  ret i32 %76
}

; Function Attrs: nounwind
declare dso_local double @pow(double, double) #1

; Function Attrs: noinline nounwind uwtable
define dso_local i32 @main() #0 {
  %1 = alloca i32, align 4
  %2 = alloca i32, align 4
  %3 = alloca i32, align 4
  %4 = alloca i32, align 4
  store i32 0, i32* %1, align 4
  store i32 1, i32* %2, align 4
  br label %5

5:                                                ; preds = %31, %0
  %6 = load i32, i32* %2, align 4
  %7 = icmp sle i32 %6, 6
  br i1 %7, label %8, label %34

8:                                                ; preds = %5
  %9 = call i32 (i8*, ...) @__isoc99_scanf(i8* getelementptr inbounds ([3 x i8], [3 x i8]* @.str, i64 0, i64 0), i32* %3)
  %10 = load i32, i32* %3, align 4
  %11 = icmp ne i32 %10, 0
  br i1 %11, label %12, label %28

12:                                               ; preds = %8
  %13 = load i32, i32* %3, align 4
  %14 = icmp sgt i32 %13, 0
  br i1 %14, label %15, label %20

15:                                               ; preds = %12
  %16 = load i32, i32* %3, align 4
  %17 = call i32 @reverse(i32 %16)
  store i32 %17, i32* %4, align 4
  %18 = load i32, i32* %4, align 4
  %19 = call i32 (i8*, ...) @printf(i8* getelementptr inbounds ([4 x i8], [4 x i8]* @.str.1, i64 0, i64 0), i32 %18)
  br label %27

20:                                               ; preds = %12
  %21 = load i32, i32* %3, align 4
  %22 = sub nsw i32 0, %21
  %23 = call i32 @reverse(i32 %22)
  %24 = sub nsw i32 0, %23
  store i32 %24, i32* %4, align 4
  %25 = load i32, i32* %4, align 4
  %26 = call i32 (i8*, ...) @printf(i8* getelementptr inbounds ([4 x i8], [4 x i8]* @.str.1, i64 0, i64 0), i32 %25)
  br label %27

27:                                               ; preds = %20, %15
  br label %30

28:                                               ; preds = %8
  %29 = call i32 (i8*, ...) @printf(i8* getelementptr inbounds ([3 x i8], [3 x i8]* @.str.2, i64 0, i64 0))
  br label %30

30:                                               ; preds = %28, %27
  br label %31

31:                                               ; preds = %30
  %32 = load i32, i32* %2, align 4
  %33 = add nsw i32 %32, 1
  store i32 %33, i32* %2, align 4
  br label %5

34:                                               ; preds = %5
  ret i32 0
}

declare dso_local i32 @__isoc99_scanf(i8*, ...) #2

declare dso_local i32 @printf(i8*, ...) #2


!llvm.module.flags = !{!0}
!llvm.ident = !{!1}

!0 = !{i32 1, !"wchar_size", i32 4}
!1 = !{!"clang version 10.0.0-4ubuntu1 "}
